; Function Attrs: mustprogress uwtable
define internal void @"_ZNSt17_Function_handlerIFvRN19OpenColorIO_v2_5dev10OpRcPtrVecEEZNS0_4ACES11RegisterAllERNS0_28BuiltinTransformRegistryImplEE4$_24E9_M_invokeERKSt9_Any_dataS2_"(ptr nonnull readnone align 8 captures(none) %0, ptr noundef nonnull align 8 dereferenceable(144) %1) #3 align 2 {
  %3 = alloca [4 x double], align 16
  tail call void @_ZN19OpenColorIO_v2_5dev11ACES_OUTPUT25Generate_RRT_preamble_opsERNS_10OpRcPtrVecE(ptr noundef nonnull align 8 dereferenceable(144) %1)
  tail call void @_ZN19OpenColorIO_v2_5dev11ACES_OUTPUT26Generate_hdr_tonecurve_opsERNS_10OpRcPtrVecEd(ptr noundef nonnull align 8 dereferenceable(144) %1, double noundef 2.000000e+03)
  tail call void @_ZN19OpenColorIO_v2_5dev11ACES_OUTPUT30Generate_hdr_primary_clamp_opsERNS_10OpRcPtrVecERKNS_9PrimariesE(ptr noundef nonnull align 8 dereferenceable(144) %1, ptr noundef nonnull align 8 dereferenceable(64) @_ZN19OpenColorIO_v2_5dev6P3_D659primariesE)
  call void @llvm.lifetime.start.p0(i64 32, ptr nonnull %3) #23
  store double 2.000000e+01, ptr %3, align 16, !tbaa !65
  %4 = getelementptr inbounds nuw i8, ptr %3, i64 8
  store double 2.000000e+01, ptr %4, align 8, !tbaa !65
  %5 = getelementptr inbounds nuw i8, ptr %3, i64 16
  store double 2.000000e+01, ptr %5, align 16, !tbaa !65
  %6 = getelementptr inbounds nuw i8, ptr %3, i64 24
  store double 1.000000e+00, ptr %6, align 8, !tbaa !65
  call void @_ZN19OpenColorIO_v2_5dev13CreateScaleOpERNS_10OpRcPtrVecEPKdNS_18TransformDirectionE(ptr noundef nonnull align 8 dereferenceable(144) %1, ptr noundef nonnull %3, i32 noundef 0)
  call void @llvm.lifetime.end.p0(i64 32, ptr nonnull %3) #23
  ret void
}